target datalayout = "e-m:e-p270:32:32-p271:32:32-p272:64:64-i64:64-i128:128-f80:128-n8:16:32:64-S128"
target triple = "x86_64-pc-linux-gnu"

%"class.cv::Mat" = type { i32, i32, i32, i32, ptr, ptr, ptr, ptr, ptr, ptr, %"struct.cv::MatSize", %"struct.cv::MatStep" }
%"struct.cv::MatSize" = type { ptr }
%"struct.cv::MatStep" = type { ptr, [2 x i64] }
%"class.cv::_InputArray" = type { i32, ptr, %"class.cv::Size_" }
%"class.cv::Size_" = type { i32, i32 }
%"class.cv::Vec.1" = type { %"class.cv::Matx.2" }
%"class.cv::Matx.2" = type { [2 x double] }

; Function Attrs: inlinehint mustprogress nounwind uwtable
define linkonce_odr hidden void @_ZN2cv4MatxIdLi2ELi1EEC2Edd(ptr noundef nonnull align 8 dereferenceable(16) %0, double noundef %1, double noundef %2) unnamed_addr #8 comdat align 2 {
  %4 = alloca ptr, align 8
  %5 = alloca double, align 8
  %6 = alloca double, align 8
  %7 = alloca i32, align 4
  store ptr %0, ptr %4, align 8, !tbaa !140
  store double %1, ptr %5, align 8, !tbaa !37
  store double %2, ptr %6, align 8, !tbaa !37
  %8 = load ptr, ptr %4, align 8
  %9 = load double, ptr %5, align 8, !tbaa !37
  %10 = getelementptr inbounds nuw %"class.cv::Matx.2", ptr %8, i32 0, i32 0
  %11 = getelementptr inbounds [2 x double], ptr %10, i64 0, i64 0
  store double %9, ptr %11, align 8, !tbaa !37
  %12 = load double, ptr %6, align 8, !tbaa !37
  %13 = getelementptr inbounds nuw %"class.cv::Matx.2", ptr %8, i32 0, i32 0
  %14 = getelementptr inbounds [2 x double], ptr %13, i64 0, i64 1
  store double %12, ptr %14, align 8, !tbaa !37
  call void @llvm.lifetime.start.p0(i64 4, ptr %7) #3
  store i32 2, ptr %7, align 4, !tbaa !17
  br label %15

15:                                               ; preds = %24, %3
  %16 = load i32, ptr %7, align 4, !tbaa !17
  %17 = icmp slt i32 %16, 2
  br i1 %17, label %19, label %18

18:                                               ; preds = %15
  call void @llvm.lifetime.end.p0(i64 4, ptr %7) #3
  br label %27

19:                                               ; preds = %15
  %20 = getelementptr inbounds nuw %"class.cv::Matx.2", ptr %8, i32 0, i32 0
  %21 = load i32, ptr %7, align 4, !tbaa !17
  %22 = sext i32 %21 to i64
  %23 = getelementptr inbounds [2 x double], ptr %20, i64 0, i64 %22
  store double 0.000000e+00, ptr %23, align 8, !tbaa !37
  br label %24

24:                                               ; preds = %19
  %25 = load i32, ptr %7, align 4, !tbaa !17
  %26 = add nsw i32 %25, 1
  store i32 %26, ptr %7, align 4, !tbaa !17
  br label %15, !llvm.loop !142

27:                                               ; preds = %18
  ret void
}

; Function Attrs: inlinehint mustprogress nounwind uwtable
define linkonce_odr hidden noundef ptr @_ZN2cv3Mat3ptrINS_3VecIdLi2EEEEEPT_i(ptr noundef nonnull align 8 dereferenceable(96) %0, i32 noundef %1) #8 comdat align 2 {
  %3 = alloca ptr, align 8
  %4 = alloca i32, align 4
  store ptr %0, ptr %3, align 8, !tbaa !22
  store i32 %1, ptr %4, align 4, !tbaa !17
  %5 = load ptr, ptr %3, align 8
  %6 = getelementptr inbounds nuw %"class.cv::Mat", ptr %5, i32 0, i32 4
  %7 = load ptr, ptr %6, align 8, !tbaa !75
  %8 = getelementptr inbounds nuw %"class.cv::Mat", ptr %5, i32 0, i32 11
  %9 = getelementptr inbounds nuw %"struct.cv::MatStep", ptr %8, i32 0, i32 0
  %10 = load ptr, ptr %9, align 8, !tbaa !76
  %11 = getelementptr inbounds i64, ptr %10, i64 0
  %12 = load i64, ptr %11, align 8, !tbaa !33
  %13 = load i32, ptr %4, align 4, !tbaa !17
  %14 = sext i32 %13 to i64
  %15 = mul i64 %12, %14
  %16 = getelementptr inbounds nuw i8, ptr %7, i64 %15
  ret ptr %16
}

; Function Attrs: inlinehint mustprogress uwtable
define linkonce_odr hidden void @_ZN2cv3VecIdLi2EEC2Edd(ptr noundef nonnull align 8 dereferenceable(16) %0, double noundef %1, double noundef %2) unnamed_addr #7 comdat align 2 {
  %4 = alloca ptr, align 8
  %5 = alloca double, align 8
  %6 = alloca double, align 8
  store ptr %0, ptr %4, align 8, !tbaa !77
  store double %1, ptr %5, align 8, !tbaa !37
  store double %2, ptr %6, align 8, !tbaa !37
  %7 = load ptr, ptr %4, align 8
  %8 = load double, ptr %5, align 8, !tbaa !37
  %9 = load double, ptr %6, align 8, !tbaa !37
  call void @_ZN2cv4MatxIdLi2ELi1EEC2Edd(ptr noundef nonnull align 8 dereferenceable(16) %7, double noundef %8, double noundef %9)
  ret void
}

; Function Attrs: inlinehint mustprogress uwtable
define linkonce_odr hidden void @_ZNK2cv11_InputArray6getMatEi(ptr dead_on_unwind noalias writable sret(%"class.cv::Mat") align 8 %0, ptr noundef nonnull align 8 dereferenceable(24) %1, i32 noundef %2) #7 comdat align 2 {
  %4 = alloca ptr, align 8
  %5 = alloca ptr, align 8
  %6 = alloca i32, align 4
  store ptr %0, ptr %4, align 8
  store ptr %1, ptr %5, align 8, !tbaa !11
  store i32 %2, ptr %6, align 4, !tbaa !17
  %7 = load ptr, ptr %5, align 8
  %8 = call noundef i32 @_ZNK2cv11_InputArray4kindEv(ptr noundef nonnull align 8 dereferenceable(24) %7)
  %9 = icmp eq i32 %8, 65536
  br i1 %9, label %10, label %16

10:                                               ; preds = %3
  %11 = load i32, ptr %6, align 4, !tbaa !17
  %12 = icmp slt i32 %11, 0
  br i1 %12, label %13, label %16

13:                                               ; preds = %10
  %14 = getelementptr inbounds nuw %"class.cv::_InputArray", ptr %7, i32 0, i32 1
  %15 = load ptr, ptr %14, align 8, !tbaa !19
  call void @_ZN2cv3MatC1ERKS0_(ptr noundef nonnull align 8 dereferenceable(96) %0, ptr noundef nonnull align 8 dereferenceable(96) %15)
  br label %18

16:                                               ; preds = %10, %3
  %17 = load i32, ptr %6, align 4, !tbaa !17
  call void @_ZNK2cv11_InputArray7getMat_Ei(ptr dead_on_unwind writable sret(%"class.cv::Mat") align 8 %0, ptr noundef nonnull align 8 dereferenceable(24) %7, i32 noundef %17)
  br label %18

18:                                               ; preds = %16, %13
  ret void
}

; Function Attrs: mustprogress uwtable
define hidden void @_ZN2cv4IPPE10PoseSolver29generateSquareObjectCorners2DEdRKNS_12_OutputArrayE(ptr noundef nonnull align 8 dereferenceable(8) %0, double noundef %1, ptr noundef nonnull align 8 dereferenceable(24) %2) #5 align 2 personality ptr @__gxx_personality_v0 {
  %4 = alloca ptr, align 8
  %5 = alloca double, align 8
  %6 = alloca ptr, align 8
  %7 = alloca %"class.cv::Mat", align 8
  %8 = alloca %"class.cv::Vec.1", align 8
  %9 = alloca ptr, align 8
  %10 = alloca i32, align 4
  %11 = alloca %"class.cv::Vec.1", align 8
  %12 = alloca %"class.cv::Vec.1", align 8
  %13 = alloca %"class.cv::Vec.1", align 8
  store ptr %0, ptr %4, align 8, !tbaa !3
  store double %1, ptr %5, align 8, !tbaa !37
  store ptr %2, ptr %6, align 8, !tbaa !13
  %14 = load ptr, ptr %6, align 8, !tbaa !13
  call void @_ZNK2cv12_OutputArray6createEiiiibNS0_9DepthMaskE(ptr noundef nonnull align 8 dereferenceable(24) %14, i32 noundef 1, i32 noundef 4, i32 noundef 14, i32 noundef -1, i1 noundef zeroext false, i32 noundef 0)
  call void @llvm.lifetime.start.p0(i64 96, ptr %7) #3
  %15 = load ptr, ptr %6, align 8, !tbaa !13
  call void @_ZNK2cv11_InputArray6getMatEi(ptr dead_on_unwind writable sret(%"class.cv::Mat") align 8 %7, ptr noundef nonnull align 8 dereferenceable(24) %15, i32 noundef -1)
  call void @llvm.lifetime.start.p0(i64 16, ptr %8) #3
  %16 = load double, ptr %5, align 8, !tbaa !37
  %17 = fneg double %16
  %18 = fdiv double %17, 2.000000e+00
  %19 = load double, ptr %5, align 8, !tbaa !37
  %20 = fdiv double %19, 2.000000e+00
  invoke void @_ZN2cv3VecIdLi2EEC2Edd(ptr noundef nonnull align 8 dereferenceable(16) %8, double noundef %18, double noundef %20)
          to label %21 unwind label %52

21:                                               ; preds = %3
  %22 = invoke noundef ptr @_ZN2cv3Mat3ptrINS_3VecIdLi2EEEEEPT_i(ptr noundef nonnull align 8 dereferenceable(96) %7, i32 noundef 0)
          to label %23 unwind label %52

23:                                               ; preds = %21
  %24 = getelementptr inbounds %"class.cv::Vec.1", ptr %22, i64 0
  call void @llvm.memcpy.p0.p0.i64(ptr align 8 %24, ptr align 8 %8, i64 16, i1 false)
  call void @llvm.lifetime.end.p0(i64 16, ptr %8) #3
  call void @llvm.lifetime.start.p0(i64 16, ptr %11) #3
  %25 = load double, ptr %5, align 8, !tbaa !37
  %26 = fdiv double %25, 2.000000e+00
  %27 = load double, ptr %5, align 8, !tbaa !37
  %28 = fdiv double %27, 2.000000e+00
  invoke void @_ZN2cv3VecIdLi2EEC2Edd(ptr noundef nonnull align 8 dereferenceable(16) %11, double noundef %26, double noundef %28)
          to label %29 unwind label %56

29:                                               ; preds = %23
  %30 = invoke noundef ptr @_ZN2cv3Mat3ptrINS_3VecIdLi2EEEEEPT_i(ptr noundef nonnull align 8 dereferenceable(96) %7, i32 noundef 0)
          to label %31 unwind label %56

31:                                               ; preds = %29
  %32 = getelementptr inbounds %"class.cv::Vec.1", ptr %30, i64 1
  call void @llvm.memcpy.p0.p0.i64(ptr align 8 %32, ptr align 8 %11, i64 16, i1 false)
  call void @llvm.lifetime.end.p0(i64 16, ptr %11) #3
  call void @llvm.lifetime.start.p0(i64 16, ptr %12) #3
  %33 = load double, ptr %5, align 8, !tbaa !37
  %34 = fdiv double %33, 2.000000e+00
  %35 = load double, ptr %5, align 8, !tbaa !37
  %36 = fneg double %35
  %37 = fdiv double %36, 2.000000e+00
  invoke void @_ZN2cv3VecIdLi2EEC2Edd(ptr noundef nonnull align 8 dereferenceable(16) %12, double noundef %34, double noundef %37)
          to label %38 unwind label %60

38:                                               ; preds = %31
  %39 = invoke noundef ptr @_ZN2cv3Mat3ptrINS_3VecIdLi2EEEEEPT_i(ptr noundef nonnull align 8 dereferenceable(96) %7, i32 noundef 0)
          to label %40 unwind label %60

40:                                               ; preds = %38
  %41 = getelementptr inbounds %"class.cv::Vec.1", ptr %39, i64 2
  call void @llvm.memcpy.p0.p0.i64(ptr align 8 %41, ptr align 8 %12, i64 16, i1 false)
  call void @llvm.lifetime.end.p0(i64 16, ptr %12) #3
  call void @llvm.lifetime.start.p0(i64 16, ptr %13) #3
  %42 = load double, ptr %5, align 8, !tbaa !37
  %43 = fneg double %42
  %44 = fdiv double %43, 2.000000e+00
  %45 = load double, ptr %5, align 8, !tbaa !37
  %46 = fneg double %45
  %47 = fdiv double %46, 2.000000e+00
  invoke void @_ZN2cv3VecIdLi2EEC2Edd(ptr noundef nonnull align 8 dereferenceable(16) %13, double noundef %44, double noundef %47)
          to label %48 unwind label %64

48:                                               ; preds = %40
  %49 = invoke noundef ptr @_ZN2cv3Mat3ptrINS_3VecIdLi2EEEEEPT_i(ptr noundef nonnull align 8 dereferenceable(96) %7, i32 noundef 0)
          to label %50 unwind label %64

50:                                               ; preds = %48
  %51 = getelementptr inbounds %"class.cv::Vec.1", ptr %49, i64 3
  call void @llvm.memcpy.p0.p0.i64(ptr align 8 %51, ptr align 8 %13, i64 16, i1 false)
  call void @llvm.lifetime.end.p0(i64 16, ptr %13) #3
  call void @_ZN2cv3MatD1Ev(ptr noundef nonnull align 8 dereferenceable(96) %7) #3
  call void @llvm.lifetime.end.p0(i64 96, ptr %7) #3
  ret void

52:                                               ; preds = %21, %3
  %53 = landingpad { ptr, i32 }
          cleanup
  %54 = extractvalue { ptr, i32 } %53, 0
  store ptr %54, ptr %9, align 8
  %55 = extractvalue { ptr, i32 } %53, 1
  store i32 %55, ptr %10, align 4
  call void @llvm.lifetime.end.p0(i64 16, ptr %8) #3
  br label %68

56:                                               ; preds = %29, %23
  %57 = landingpad { ptr, i32 }
          cleanup
  %58 = extractvalue { ptr, i32 } %57, 0
  store ptr %58, ptr %9, align 8
  %59 = extractvalue { ptr, i32 } %57, 1
  store i32 %59, ptr %10, align 4
  call void @llvm.lifetime.end.p0(i64 16, ptr %11) #3
  br label %68

60:                                               ; preds = %38, %31
  %61 = landingpad { ptr, i32 }
          cleanup
  %62 = extractvalue { ptr, i32 } %61, 0
  store ptr %62, ptr %9, align 8
  %63 = extractvalue { ptr, i32 } %61, 1
  store i32 %63, ptr %10, align 4
  call void @llvm.lifetime.end.p0(i64 16, ptr %12) #3
  br label %68

64:                                               ; preds = %48, %40
  %65 = landingpad { ptr, i32 }
          cleanup
  %66 = extractvalue { ptr, i32 } %65, 0
  store ptr %66, ptr %9, align 8
  %67 = extractvalue { ptr, i32 } %65, 1
  store i32 %67, ptr %10, align 4
  call void @llvm.lifetime.end.p0(i64 16, ptr %13) #3
  br label %68

68:                                               ; preds = %64, %60, %56, %52
  call void @_ZN2cv3MatD1Ev(ptr noundef nonnull align 8 dereferenceable(96) %7) #3
  call void @llvm.lifetime.end.p0(i64 96, ptr %7) #3
  br label %69

69:                                               ; preds = %68
  %70 = load ptr, ptr %9, align 8
  %71 = load i32, ptr %10, align 4
  %72 = insertvalue { ptr, i32 } poison, ptr %70, 0
  %73 = insertvalue { ptr, i32 } %72, i32 %71, 1
  resume { ptr, i32 } %73
}